; Function Attrs: nounwind uwtable
define internal fastcc zeroext i1 @lxb_html_tree_insertion_mode_foreign_content_comment(ptr noundef %0, ptr noundef %1) unnamed_addr #0 {
  %3 = tail call ptr @lxb_html_tree_insert_comment(ptr noundef %0, ptr noundef %1, ptr noundef null) #4
  %4 = icmp eq ptr %3, null
  br i1 %4, label %5, label %8

5:                                                ; preds = %2
  %6 = getelementptr inbounds i8, ptr %0, i64 112
  store i32 2, ptr %6, align 8
  %7 = tail call zeroext i1 @lxb_html_tree_process_abort(ptr noundef %0) #4
  br label %8

8:                                                ; preds = %2, %5
  %.0 = phi i1 [ %7, %5 ], [ true, %2 ]
  ret i1 %.0
}